target datalayout = "e-m:e-p270:32:32-p271:32:32-p272:64:64-i64:64-i128:128-f80:128-n8:16:32:64-S128"
target triple = "x86_64-unknown-linux-gnu"

%"class.smt::theory_array_base" = type <{ %"class.smt::theory.base", i8, [2 x i8], i32, [4 x i8], %class.svector.1, %class.ptr_vector, %class.svector.3, %class.svector.3, %class.svector.3, %class.scoped_ptr, %class.ptr_vector.5, %class.obj_map, %class.ptr_hashtable, %class.svector.9, ptr, %class.ptr_vector, %class.ptr_vector.11, %class.svector.1, %class.obj_map.13, %class.ptr_vector, %class.ptr_vector.18, i8, [7 x i8] }>
%"class.smt::theory.base" = type <{ ptr, i32, [4 x i8], ptr, ptr, %class.ptr_vector, %class.svector, i32, i8 }>
%class.svector = type { %class.vector.0 }
%class.vector.0 = type { ptr }
%class.svector.3 = type { %class.vector.4 }
%class.vector.4 = type { ptr }
%class.scoped_ptr = type { ptr }
%class.ptr_vector.5 = type { %class.vector.6 }
%class.vector.6 = type { ptr }
%class.obj_map = type { %class.core_hashtable }
%class.core_hashtable = type <{ ptr, i32, i32, i32, [4 x i8] }>
%class.ptr_hashtable = type { %class.core_hashtable.base.8, [4 x i8] }
%class.core_hashtable.base.8 = type <{ ptr, i32, i32, i32 }>
%class.svector.9 = type { %class.vector.10 }
%class.vector.10 = type { ptr }
%class.ptr_vector.11 = type { %class.vector.12 }
%class.vector.12 = type { ptr }
%class.svector.1 = type { %class.vector.2 }
%class.vector.2 = type { ptr }
%class.obj_map.13 = type { %class.core_hashtable.14 }
%class.core_hashtable.14 = type <{ ptr, i32, i32, i32, [4 x i8] }>
%class.ptr_vector = type { %class.vector }
%class.vector = type { ptr }
%class.ptr_vector.18 = type { %class.vector.19 }
%class.vector.19 = type { ptr }

; Function Attrs: mustprogress nounwind uwtable
define linkonce_odr hidden noundef nonnull align 4 dereferenceable(4) ptr @_ZN6vectorIiLb0EjEixEj(ptr noundef nonnull align 8 dereferenceable(8) %this, i32 noundef %idx) #4 comdat align 2 {
entry:
  %this.addr = alloca ptr, align 8
  %idx.addr = alloca i32, align 4
  store ptr %this, ptr %this.addr, align 8
  store i32 %idx, ptr %idx.addr, align 4
  %this1 = load ptr, ptr %this.addr, align 8
  %m_data = getelementptr inbounds %class.vector.2, ptr %this1, i32 0, i32 0
  %0 = load ptr, ptr %m_data, align 8
  %1 = load i32, ptr %idx.addr, align 4
  %idxprom = zext i32 %1 to i64
  %arrayidx = getelementptr inbounds i32, ptr %0, i64 %idxprom
  ret ptr %arrayidx
}

; Function Attrs: mustprogress nounwind uwtable
define linkonce_odr hidden noundef nonnull align 8 dereferenceable(8) ptr @_ZN6vectorIPN3smt5enodeELb0EjEixEj(ptr noundef nonnull align 8 dereferenceable(8) %this, i32 noundef %idx) #4 comdat align 2 {
entry:
  %this.addr = alloca ptr, align 8
  %idx.addr = alloca i32, align 4
  store ptr %this, ptr %this.addr, align 8
  store i32 %idx, ptr %idx.addr, align 4
  %this1 = load ptr, ptr %this.addr, align 8
  %m_data = getelementptr inbounds %class.vector, ptr %this1, i32 0, i32 0
  %0 = load ptr, ptr %m_data, align 8
  %1 = load i32, ptr %idx.addr, align 4
  %idxprom = zext i32 %1 to i64
  %arrayidx = getelementptr inbounds ptr, ptr %0, i64 %idxprom
  ret ptr %arrayidx
}

; Function Attrs: mustprogress uwtable
define hidden noundef i32 @_ZN3smt17theory_array_base7mg_findEi(ptr noundef nonnull align 8 dereferenceable(249) %this, i32 noundef %n) #5 align 2 {
entry:
  %retval = alloca i32, align 4
  %this.addr = alloca ptr, align 8
  %n.addr = alloca i32, align 4
  %n0 = alloca i32, align 4
  %n1 = alloca i32, align 4
  store ptr %this, ptr %this.addr, align 8
  store i32 %n, ptr %n.addr, align 4
  %this1 = load ptr, ptr %this.addr, align 8
  %m_parents = getelementptr inbounds %"class.smt::theory_array_base", ptr %this1, i32 0, i32 18
  %0 = load i32, ptr %n.addr, align 4
  %call = call noundef nonnull align 4 dereferenceable(4) ptr @_ZN6vectorIiLb0EjEixEj(ptr noundef nonnull align 8 dereferenceable(8) %m_parents, i32 noundef %0)
  %1 = load i32, ptr %call, align 4
  %cmp = icmp slt i32 %1, 0
  br i1 %cmp, label %if.then, label %if.end

if.then:                                          ; preds = %entry
  %2 = load i32, ptr %n.addr, align 4
  store i32 %2, ptr %retval, align 4
  br label %return

if.end:                                           ; preds = %entry
  %3 = load i32, ptr %n.addr, align 4
  store i32 %3, ptr %n0, align 4
  %m_parents2 = getelementptr inbounds %"class.smt::theory_array_base", ptr %this1, i32 0, i32 18
  %4 = load i32, ptr %n0, align 4
  %call3 = call noundef nonnull align 4 dereferenceable(4) ptr @_ZN6vectorIiLb0EjEixEj(ptr noundef nonnull align 8 dereferenceable(8) %m_parents2, i32 noundef %4)
  %5 = load i32, ptr %call3, align 4
  store i32 %5, ptr %n.addr, align 4
  %m_parents4 = getelementptr inbounds %"class.smt::theory_array_base", ptr %this1, i32 0, i32 18
  %6 = load i32, ptr %n.addr, align 4
  %call5 = call noundef nonnull align 4 dereferenceable(4) ptr @_ZN6vectorIiLb0EjEixEj(ptr noundef nonnull align 8 dereferenceable(8) %m_parents4, i32 noundef %6)
  %7 = load i32, ptr %call5, align 4
  %cmp6 = icmp slt i32 %7, -1
  br i1 %cmp6, label %if.then7, label %if.end8

if.then7:                                         ; preds = %if.end
  %8 = load i32, ptr %n.addr, align 4
  store i32 %8, ptr %retval, align 4
  br label %return

if.end8:                                          ; preds = %if.end
  br label %while.cond

while.cond:                                       ; preds = %while.body, %if.end8
  %m_parents9 = getelementptr inbounds %"class.smt::theory_array_base", ptr %this1, i32 0, i32 18
  %9 = load i32, ptr %n.addr, align 4
  %call10 = call noundef nonnull align 4 dereferenceable(4) ptr @_ZN6vectorIiLb0EjEixEj(ptr noundef nonnull align 8 dereferenceable(8) %m_parents9, i32 noundef %9)
  %10 = load i32, ptr %call10, align 4
  %cmp11 = icmp sge i32 %10, 0
  br i1 %cmp11, label %while.body, label %while.end

while.body:                                       ; preds = %while.cond
  %m_parents12 = getelementptr inbounds %"class.smt::theory_array_base", ptr %this1, i32 0, i32 18
  %11 = load i32, ptr %n.addr, align 4
  %call13 = call noundef nonnull align 4 dereferenceable(4) ptr @_ZN6vectorIiLb0EjEixEj(ptr noundef nonnull align 8 dereferenceable(8) %m_parents12, i32 noundef %11)
  %12 = load i32, ptr %call13, align 4
  store i32 %12, ptr %n.addr, align 4
  br label %while.cond, !llvm.loop !30

while.end:                                        ; preds = %while.cond
  br label %while.cond14

while.cond14:                                     ; preds = %while.body18, %while.end
  %m_parents15 = getelementptr inbounds %"class.smt::theory_array_base", ptr %this1, i32 0, i32 18
  %13 = load i32, ptr %n0, align 4
  %call16 = call noundef nonnull align 4 dereferenceable(4) ptr @_ZN6vectorIiLb0EjEixEj(ptr noundef nonnull align 8 dereferenceable(8) %m_parents15, i32 noundef %13)
  %14 = load i32, ptr %call16, align 4
  %cmp17 = icmp sge i32 %14, 0
  br i1 %cmp17, label %while.body18, label %while.end23

while.body18:                                     ; preds = %while.cond14
  %m_parents19 = getelementptr inbounds %"class.smt::theory_array_base", ptr %this1, i32 0, i32 18
  %15 = load i32, ptr %n0, align 4
  %call20 = call noundef nonnull align 4 dereferenceable(4) ptr @_ZN6vectorIiLb0EjEixEj(ptr noundef nonnull align 8 dereferenceable(8) %m_parents19, i32 noundef %15)
  %16 = load i32, ptr %call20, align 4
  store i32 %16, ptr %n1, align 4
  %17 = load i32, ptr %n.addr, align 4
  %m_parents21 = getelementptr inbounds %"class.smt::theory_array_base", ptr %this1, i32 0, i32 18
  %18 = load i32, ptr %n0, align 4
  %call22 = call noundef nonnull align 4 dereferenceable(4) ptr @_ZN6vectorIiLb0EjEixEj(ptr noundef nonnull align 8 dereferenceable(8) %m_parents21, i32 noundef %18)
  store i32 %17, ptr %call22, align 4
  %19 = load i32, ptr %n1, align 4
  store i32 %19, ptr %n0, align 4
  br label %while.cond14, !llvm.loop !31

while.end23:                                      ; preds = %while.cond14
  %20 = load i32, ptr %n.addr, align 4
  store i32 %20, ptr %retval, align 4
  br label %return

return:                                           ; preds = %while.end23, %if.then7, %if.then
  %21 = load i32, ptr %retval, align 4
  ret i32 %21
}

; Function Attrs: mustprogress uwtable
define hidden void @_ZN3smt17theory_array_base11set_defaultEiPNS_5enodeE(ptr noundef nonnull align 8 dereferenceable(249) %this, i32 noundef %v, ptr noundef %n) #5 align 2 {
entry:
  %this.addr = alloca ptr, align 8
  %v.addr = alloca i32, align 4
  %n.addr = alloca ptr, align 8
  store ptr %this, ptr %this.addr, align 8
  store i32 %v, ptr %v.addr, align 4
  store ptr %n, ptr %n.addr, align 8
  %this1 = load ptr, ptr %this.addr, align 8
  %0 = load i32, ptr %v.addr, align 4
  %call = call noundef i32 @_ZN3smt17theory_array_base7mg_findEi(ptr noundef nonnull align 8 dereferenceable(249) %this1, i32 noundef %0)
  store i32 %call, ptr %v.addr, align 4
  %m_defaults = getelementptr inbounds %"class.smt::theory_array_base", ptr %this1, i32 0, i32 16
  %1 = load i32, ptr %v.addr, align 4
  %call2 = call noundef nonnull align 8 dereferenceable(8) ptr @_ZN6vectorIPN3smt5enodeELb0EjEixEj(ptr noundef nonnull align 8 dereferenceable(8) %m_defaults, i32 noundef %1)
  %2 = load ptr, ptr %call2, align 8
  %cmp = icmp eq ptr %2, null
  br i1 %cmp, label %if.then, label %if.end

if.then:                                          ; preds = %entry
  %3 = load ptr, ptr %n.addr, align 8
  %m_defaults3 = getelementptr inbounds %"class.smt::theory_array_base", ptr %this1, i32 0, i32 16
  %4 = load i32, ptr %v.addr, align 4
  %call4 = call noundef nonnull align 8 dereferenceable(8) ptr @_ZN6vectorIPN3smt5enodeELb0EjEixEj(ptr noundef nonnull align 8 dereferenceable(8) %m_defaults3, i32 noundef %4)
  store ptr %3, ptr %call4, align 8
  br label %if.end

if.end:                                           ; preds = %if.then, %entry
  ret void
}