; Function Attrs: mustprogress nofree norecurse nosync nounwind memory(readwrite, inaccessiblemem: none) uwtable
define hidden void @_ZN3smt17theory_array_base11set_defaultEiPNS_5enodeE(ptr nocapture noundef nonnull readonly align 8 dereferenceable(249) %this, i32 noundef %v, ptr noundef %n) local_unnamed_addr #10 align 2 {
entry:
  %m_parents.i = getelementptr inbounds i8, ptr %this, i64 200
  %0 = load ptr, ptr %m_parents.i, align 8
  %idxprom.i.i = zext i32 %v to i64
  %arrayidx.i.i = getelementptr inbounds i32, ptr %0, i64 %idxprom.i.i
  %1 = load i32, ptr %arrayidx.i.i, align 4
  %cmp.i = icmp slt i32 %1, 0
  br i1 %cmp.i, label %_ZN3smt17theory_array_base7mg_findEi.exit, label %if.end.i

if.end.i:                                         ; preds = %entry
  %idxprom.i14.i = zext nneg i32 %1 to i64
  %arrayidx.i15.i = getelementptr inbounds i32, ptr %0, i64 %idxprom.i14.i
  %2 = load i32, ptr %arrayidx.i15.i, align 4
  %cmp6.i = icmp slt i32 %2, -1
  br i1 %cmp6.i, label %_ZN3smt17theory_array_base7mg_findEi.exit, label %while.cond.i

while.cond.i:                                     ; preds = %if.end.i, %while.cond.i
  %n.addr.0.i = phi i32 [ %3, %while.cond.i ], [ %1, %if.end.i ]
  %idxprom.i16.i = zext nneg i32 %n.addr.0.i to i64
  %arrayidx.i17.i = getelementptr inbounds i32, ptr %0, i64 %idxprom.i16.i
  %3 = load i32, ptr %arrayidx.i17.i, align 4
  %cmp11.i = icmp sgt i32 %3, -1
  br i1 %cmp11.i, label %while.cond.i, label %while.body18.i, !llvm.loop !38

while.body18.i:                                   ; preds = %while.cond.i, %while.body18.i
  %4 = phi i32 [ %6, %while.body18.i ], [ %1, %while.cond.i ]
  %arrayidx.i2129.i = phi ptr [ %arrayidx.i21.i, %while.body18.i ], [ %arrayidx.i.i, %while.cond.i ]
  store i32 %n.addr.0.i, ptr %arrayidx.i2129.i, align 4
  %5 = load ptr, ptr %m_parents.i, align 8
  %idxprom.i20.i = zext nneg i32 %4 to i64
  %arrayidx.i21.i = getelementptr inbounds i32, ptr %5, i64 %idxprom.i20.i
  %6 = load i32, ptr %arrayidx.i21.i, align 4
  %cmp17.i = icmp sgt i32 %6, -1
  br i1 %cmp17.i, label %while.body18.i, label %_ZN3smt17theory_array_base7mg_findEi.exit, !llvm.loop !39

_ZN3smt17theory_array_base7mg_findEi.exit:        ; preds = %while.body18.i, %entry, %if.end.i
  %idxprom.i.pre-phi = phi i64 [ %idxprom.i.i, %entry ], [ %idxprom.i14.i, %if.end.i ], [ %idxprom.i16.i, %while.body18.i ]
  %m_defaults = getelementptr inbounds i8, ptr %this, i64 184
  %7 = load ptr, ptr %m_defaults, align 8
  %arrayidx.i = getelementptr inbounds ptr, ptr %7, i64 %idxprom.i.pre-phi
  %8 = load ptr, ptr %arrayidx.i, align 8
  %cmp = icmp eq ptr %8, null
  br i1 %cmp, label %if.then, label %if.end

if.then:                                          ; preds = %_ZN3smt17theory_array_base7mg_findEi.exit
  store ptr %n, ptr %arrayidx.i, align 8
  br label %if.end

if.end:                                           ; preds = %if.then, %_ZN3smt17theory_array_base7mg_findEi.exit
  ret void
}